target datalayout = "e-m:e-p270:32:32-p271:32:32-p272:64:64-i64:64-i128:128-f80:128-n8:16:32:64-S128"
target triple = "x86_64-pc-linux-gnu"

%struct.pg_prng_state = type { i64, i64 }

@MyProcPid = external global i32, align 4
@MyStartTimestamp = external global i64, align 8
@MyStartTime = external global i64, align 8
@pg_global_prng_state = external global %struct.pg_prng_state, align 8

; Function Attrs: nounwind uwtable
define dso_local void @InitProcessGlobals() #2 {
  %1 = alloca i64, align 8
  %2 = call i64 @GetCurrentTimestamp()
  store i64 %2, ptr @MyStartTimestamp, align 8
  %3 = load i64, ptr @MyStartTimestamp, align 8
  %4 = call i64 @timestamptz_to_time_t(i64 noundef %3)
  store i64 %4, ptr @MyStartTime, align 8
  %5 = call zeroext i1 @pg_strong_random(ptr noundef @pg_global_prng_state, i64 noundef 16)
  br i1 %5, label %6, label %9

6:                                                ; preds = %0
  %7 = call zeroext i1 @pg_prng_seed_check(ptr noundef @pg_global_prng_state)
  %8 = zext i1 %7 to i32
  br label %10

9:                                                ; preds = %0
  br label %10

10:                                               ; preds = %9, %6
  %11 = phi i32 [ %8, %6 ], [ 0, %9 ]
  %12 = icmp ne i32 %11, 0
  %13 = xor i1 %12, true
  %14 = zext i1 %13 to i32
  %15 = icmp ne i32 %14, 0
  %16 = zext i1 %15 to i32
  %17 = sext i32 %16 to i64
  %18 = call i64 @llvm.expect.i64(i64 %17, i64 0)
  %19 = icmp ne i64 %18, 0
  br i1 %19, label %20, label %30

20:                                               ; preds = %10
  call void @llvm.lifetime.start.p0(i64 8, ptr %1) #15
  %21 = load i32, ptr @MyProcPid, align 4
  %22 = sext i32 %21 to i64
  %23 = load i64, ptr @MyStartTimestamp, align 8
  %24 = shl i64 %23, 12
  %25 = xor i64 %22, %24
  %26 = load i64, ptr @MyStartTimestamp, align 8
  %27 = lshr i64 %26, 20
  %28 = xor i64 %25, %27
  store i64 %28, ptr %1, align 8
  %29 = load i64, ptr %1, align 8
  call void @pg_prng_seed(ptr noundef @pg_global_prng_state, i64 noundef %29)
  call void @llvm.lifetime.end.p0(i64 8, ptr %1) #15
  br label %30

30:                                               ; preds = %20, %10
  %31 = call i32 @pg_prng_uint32(ptr noundef @pg_global_prng_state)
  call void @srandom(i32 noundef %31) #15
  ret void
}