; Function Attrs: nounwind uwtable
define dso_local void @InitProcessGlobals() local_unnamed_addr #2 {
  %1 = tail call i64 @GetCurrentTimestamp() #18
  store i64 %1, ptr @MyStartTimestamp, align 8
  %2 = tail call i64 @timestamptz_to_time_t(i64 noundef %1) #18
  store i64 %2, ptr @MyStartTime, align 8
  %3 = tail call zeroext i1 @pg_strong_random(ptr noundef nonnull @pg_global_prng_state, i64 noundef 16) #18
  br i1 %3, label %4, label %.critedge

4:                                                ; preds = %0
  %5 = tail call zeroext i1 @pg_prng_seed_check(ptr noundef nonnull @pg_global_prng_state) #18
  br i1 %5, label %13, label %.critedge, !prof !9

.critedge:                                        ; preds = %0, %4
  %6 = load i32, ptr @MyProcPid, align 4
  %7 = sext i32 %6 to i64
  %8 = load i64, ptr @MyStartTimestamp, align 8
  %9 = shl i64 %8, 12
  %10 = xor i64 %9, %7
  %11 = lshr i64 %8, 20
  %12 = xor i64 %10, %11
  tail call void @pg_prng_seed(ptr noundef nonnull @pg_global_prng_state, i64 noundef %12) #18
  br label %13

13:                                               ; preds = %.critedge, %4
  %14 = tail call i32 @pg_prng_uint32(ptr noundef nonnull @pg_global_prng_state) #18
  tail call void @srandom(i32 noundef %14) #18
  ret void
}